target datalayout = "e-m:e-p270:32:32-p271:32:32-p272:64:64-i64:64-i128:128-f80:128-n8:16:32:64-S128"
target triple = "x86_64-pc-linux-gnu"

%struct.parms_atomic = type { i32, i32, i32 }

; Function Attrs: nounwind uwtable
define internal void @H5Z__scaleoffset_next_byte(ptr noundef %0, ptr noundef %1) #0 {
  %3 = alloca ptr, align 8
  %4 = alloca ptr, align 8
  store ptr %0, ptr %3, align 8
  store ptr %1, ptr %4, align 8
  %5 = load ptr, ptr %3, align 8
  %6 = load i64, ptr %5, align 8
  %7 = add i64 %6, 1
  store i64 %7, ptr %5, align 8
  %8 = load ptr, ptr %4, align 8
  store i32 8, ptr %8, align 4
  ret void
}

; Function Attrs: nounwind uwtable
define internal void @H5Z__scaleoffset_compress_one_byte(ptr noundef %0, i64 noundef %1, i32 noundef %2, i32 noundef %3, ptr noundef %4, ptr noundef %5, ptr noundef %6, ptr noundef byval(%struct.parms_atomic) align 8 %7, i32 noundef %8) #0 {
  %10 = alloca ptr, align 8
  %11 = alloca i64, align 8
  %12 = alloca i32, align 4
  %13 = alloca i32, align 4
  %14 = alloca ptr, align 8
  %15 = alloca ptr, align 8
  %16 = alloca ptr, align 8
  %17 = alloca i32, align 4
  %18 = alloca i32, align 4
  %19 = alloca i8, align 1
  store ptr %0, ptr %10, align 8
  store i64 %1, ptr %11, align 8
  store i32 %2, ptr %12, align 4
  store i32 %3, ptr %13, align 4
  store ptr %4, ptr %14, align 8
  store ptr %5, ptr %15, align 8
  store ptr %6, ptr %16, align 8
  store i32 %8, ptr %17, align 4
  %20 = load ptr, ptr %10, align 8
  %21 = load i64, ptr %11, align 8
  %22 = load i32, ptr %12, align 4
  %23 = zext i32 %22 to i64
  %24 = add i64 %21, %23
  %25 = getelementptr inbounds i8, ptr %20, i64 %24
  %26 = load i8, ptr %25, align 1
  store i8 %26, ptr %19, align 1
  %27 = load i32, ptr %12, align 4
  %28 = load i32, ptr %13, align 4
  %29 = icmp eq i32 %27, %28
  br i1 %29, label %30, label %37

30:                                               ; preds = %9
  %31 = load i32, ptr %17, align 4
  %32 = getelementptr inbounds %struct.parms_atomic, ptr %7, i32 0, i32 1
  %33 = load i32, ptr %32, align 4
  %34 = sub i32 %31, %33
  %35 = urem i32 %34, 8
  %36 = sub i32 8, %35
  store i32 %36, ptr %18, align 4
  br label %38

37:                                               ; preds = %9
  store i32 8, ptr %18, align 4
  br label %38

38:                                               ; preds = %37, %30
  %39 = load ptr, ptr %16, align 8
  %40 = load i32, ptr %39, align 4
  %41 = load i32, ptr %18, align 4
  %42 = icmp ugt i32 %40, %41
  br i1 %42, label %43, label %69

43:                                               ; preds = %38
  %44 = load i8, ptr %19, align 1
  %45 = zext i8 %44 to i32
  %46 = load i32, ptr %18, align 4
  %47 = shl i32 -1, %46
  %48 = xor i32 %47, -1
  %49 = and i32 %45, %48
  %50 = load ptr, ptr %16, align 8
  %51 = load i32, ptr %50, align 4
  %52 = load i32, ptr %18, align 4
  %53 = sub i32 %51, %52
  %54 = shl i32 %49, %53
  %55 = trunc i32 %54 to i8
  %56 = zext i8 %55 to i32
  %57 = load ptr, ptr %14, align 8
  %58 = load ptr, ptr %15, align 8
  %59 = load i64, ptr %58, align 8
  %60 = getelementptr inbounds i8, ptr %57, i64 %59
  %61 = load i8, ptr %60, align 1
  %62 = zext i8 %61 to i32
  %63 = or i32 %62, %56
  %64 = trunc i32 %63 to i8
  store i8 %64, ptr %60, align 1
  %65 = load i32, ptr %18, align 4
  %66 = load ptr, ptr %16, align 8
  %67 = load i32, ptr %66, align 4
  %68 = sub i32 %67, %65
  store i32 %68, ptr %66, align 4
  br label %122

69:                                               ; preds = %38
  %70 = load i8, ptr %19, align 1
  %71 = zext i8 %70 to i32
  %72 = load i32, ptr %18, align 4
  %73 = load ptr, ptr %16, align 8
  %74 = load i32, ptr %73, align 4
  %75 = sub i32 %72, %74
  %76 = ashr i32 %71, %75
  %77 = load ptr, ptr %16, align 8
  %78 = load i32, ptr %77, align 4
  %79 = shl i32 -1, %78
  %80 = xor i32 %79, -1
  %81 = and i32 %76, %80
  %82 = trunc i32 %81 to i8
  %83 = zext i8 %82 to i32
  %84 = load ptr, ptr %14, align 8
  %85 = load ptr, ptr %15, align 8
  %86 = load i64, ptr %85, align 8
  %87 = getelementptr inbounds i8, ptr %84, i64 %86
  %88 = load i8, ptr %87, align 1
  %89 = zext i8 %88 to i32
  %90 = or i32 %89, %83
  %91 = trunc i32 %90 to i8
  store i8 %91, ptr %87, align 1
  %92 = load ptr, ptr %16, align 8
  %93 = load i32, ptr %92, align 4
  %94 = load i32, ptr %18, align 4
  %95 = sub i32 %94, %93
  store i32 %95, ptr %18, align 4
  %96 = load ptr, ptr %15, align 8
  %97 = load ptr, ptr %16, align 8
  call void @H5Z__scaleoffset_next_byte(ptr noundef %96, ptr noundef %97)
  %98 = load i32, ptr %18, align 4
  %99 = icmp eq i32 %98, 0
  br i1 %99, label %100, label %101

100:                                              ; preds = %69
  br label %122

101:                                              ; preds = %69
  %102 = load i8, ptr %19, align 1
  %103 = zext i8 %102 to i32
  %104 = load i32, ptr %18, align 4
  %105 = shl i32 -1, %104
  %106 = xor i32 %105, -1
  %107 = and i32 %103, %106
  %108 = load ptr, ptr %16, align 8
  %109 = load i32, ptr %108, align 4
  %110 = load i32, ptr %18, align 4
  %111 = sub i32 %109, %110
  %112 = shl i32 %107, %111
  %113 = trunc i32 %112 to i8
  %114 = load ptr, ptr %14, align 8
  %115 = load ptr, ptr %15, align 8
  %116 = load i64, ptr %115, align 8
  %117 = getelementptr inbounds i8, ptr %114, i64 %116
  store i8 %113, ptr %117, align 1
  %118 = load i32, ptr %18, align 4
  %119 = load ptr, ptr %16, align 8
  %120 = load i32, ptr %119, align 4
  %121 = sub i32 %120, %118
  store i32 %121, ptr %119, align 4
  br label %122

122:                                              ; preds = %101, %100, %43
  ret void
}

; Function Attrs: nounwind uwtable
define internal void @H5Z__scaleoffset_compress_one_atomic(ptr noundef %0, i64 noundef %1, ptr noundef %2, ptr noundef %3, ptr noundef %4, ptr noundef byval(%struct.parms_atomic) align 8 %5) #0 {
  %7 = alloca ptr, align 8
  %8 = alloca i64, align 8
  %9 = alloca ptr, align 8
  %10 = alloca ptr, align 8
  %11 = alloca ptr, align 8
  %12 = alloca i32, align 4
  %13 = alloca i32, align 4
  %14 = alloca i32, align 4
  store ptr %0, ptr %7, align 8
  store i64 %1, ptr %8, align 8
  store ptr %2, ptr %9, align 8
  store ptr %3, ptr %10, align 8
  store ptr %4, ptr %11, align 8
  %15 = getelementptr inbounds %struct.parms_atomic, ptr %5, i32 0, i32 0
  %16 = load i32, ptr %15, align 8
  %17 = mul i32 %16, 8
  store i32 %17, ptr %13, align 4
  %18 = getelementptr inbounds %struct.parms_atomic, ptr %5, i32 0, i32 2
  %19 = load i32, ptr %18, align 8
  %20 = icmp eq i32 %19, 0
  br i1 %20, label %21, label %48

21:                                               ; preds = %6
  %22 = getelementptr inbounds %struct.parms_atomic, ptr %5, i32 0, i32 0
  %23 = load i32, ptr %22, align 8
  %24 = sub i32 %23, 1
  %25 = load i32, ptr %13, align 4
  %26 = getelementptr inbounds %struct.parms_atomic, ptr %5, i32 0, i32 1
  %27 = load i32, ptr %26, align 4
  %28 = sub i32 %25, %27
  %29 = udiv i32 %28, 8
  %30 = sub i32 %24, %29
  store i32 %30, ptr %12, align 4
  %31 = load i32, ptr %12, align 4
  store i32 %31, ptr %14, align 4
  br label %32

32:                                               ; preds = %44, %21
  %33 = load i32, ptr %14, align 4
  %34 = icmp sge i32 %33, 0
  br i1 %34, label %35, label %47

35:                                               ; preds = %32
  %36 = load ptr, ptr %7, align 8
  %37 = load i64, ptr %8, align 8
  %38 = load i32, ptr %14, align 4
  %39 = load i32, ptr %12, align 4
  %40 = load ptr, ptr %9, align 8
  %41 = load ptr, ptr %10, align 8
  %42 = load ptr, ptr %11, align 8
  %43 = load i32, ptr %13, align 4
  call void @H5Z__scaleoffset_compress_one_byte(ptr noundef %36, i64 noundef %37, i32 noundef %38, i32 noundef %39, ptr noundef %40, ptr noundef %41, ptr noundef %42, ptr noundef byval(%struct.parms_atomic) align 8 %5, i32 noundef %43)
  br label %44

44:                                               ; preds = %35
  %45 = load i32, ptr %14, align 4
  %46 = add nsw i32 %45, -1
  store i32 %46, ptr %14, align 4
  br label %32

47:                                               ; preds = %32
  br label %74

48:                                               ; preds = %6
  %49 = load i32, ptr %13, align 4
  %50 = getelementptr inbounds %struct.parms_atomic, ptr %5, i32 0, i32 1
  %51 = load i32, ptr %50, align 4
  %52 = sub i32 %49, %51
  %53 = udiv i32 %52, 8
  store i32 %53, ptr %12, align 4
  %54 = load i32, ptr %12, align 4
  store i32 %54, ptr %14, align 4
  br label %55

55:                                               ; preds = %70, %48
  %56 = load i32, ptr %14, align 4
  %57 = getelementptr inbounds %struct.parms_atomic, ptr %5, i32 0, i32 0
  %58 = load i32, ptr %57, align 8
  %59 = sub i32 %58, 1
  %60 = icmp sle i32 %56, %59
  br i1 %60, label %61, label %73

61:                                               ; preds = %55
  %62 = load ptr, ptr %7, align 8
  %63 = load i64, ptr %8, align 8
  %64 = load i32, ptr %14, align 4
  %65 = load i32, ptr %12, align 4
  %66 = load ptr, ptr %9, align 8
  %67 = load ptr, ptr %10, align 8
  %68 = load ptr, ptr %11, align 8
  %69 = load i32, ptr %13, align 4
  call void @H5Z__scaleoffset_compress_one_byte(ptr noundef %62, i64 noundef %63, i32 noundef %64, i32 noundef %65, ptr noundef %66, ptr noundef %67, ptr noundef %68, ptr noundef byval(%struct.parms_atomic) align 8 %5, i32 noundef %69)
  br label %70

70:                                               ; preds = %61
  %71 = load i32, ptr %14, align 4
  %72 = add nsw i32 %71, 1
  store i32 %72, ptr %14, align 4
  br label %55

73:                                               ; preds = %55
  br label %74

74:                                               ; preds = %73, %47
  ret void
}

; Function Attrs: nounwind uwtable
define internal void @H5Z__scaleoffset_compress(ptr noundef %0, i32 noundef %1, ptr noundef %2, i64 noundef %3, i64 %4, i32 %5) #0 {
  %7 = alloca %struct.parms_atomic, align 8
  %8 = alloca { i64, i32 }, align 4
  %9 = alloca ptr, align 8
  %10 = alloca i32, align 4
  %11 = alloca ptr, align 8
  %12 = alloca i64, align 8
  %13 = alloca i64, align 8
  %14 = alloca i64, align 8
  %15 = alloca i32, align 4
  %16 = getelementptr inbounds { i64, i32 }, ptr %8, i32 0, i32 0
  store i64 %4, ptr %16, align 4
  %17 = getelementptr inbounds { i64, i32 }, ptr %8, i32 0, i32 1
  store i32 %5, ptr %17, align 4
  call void @llvm.memcpy.p0.p0.i64(ptr align 4 %7, ptr align 4 %8, i64 12, i1 false)
  store ptr %0, ptr %9, align 8
  store i32 %1, ptr %10, align 4
  store ptr %2, ptr %11, align 8
  store i64 %3, ptr %12, align 8
  store i64 0, ptr %14, align 8
  br label %18

18:                                               ; preds = %26, %6
  %19 = load i64, ptr %14, align 8
  %20 = load i64, ptr %12, align 8
  %21 = icmp ult i64 %19, %20
  br i1 %21, label %22, label %29

22:                                               ; preds = %18
  %23 = load ptr, ptr %11, align 8
  %24 = load i64, ptr %14, align 8
  %25 = getelementptr inbounds i8, ptr %23, i64 %24
  store i8 0, ptr %25, align 1
  br label %26

26:                                               ; preds = %22
  %27 = load i64, ptr %14, align 8
  %28 = add i64 %27, 1
  store i64 %28, ptr %14, align 8
  br label %18

29:                                               ; preds = %18
  store i64 0, ptr %14, align 8
  store i32 8, ptr %15, align 4
  store i64 0, ptr %13, align 8
  br label %30

30:                                               ; preds = %43, %29
  %31 = load i64, ptr %13, align 8
  %32 = load i32, ptr %10, align 4
  %33 = zext i32 %32 to i64
  %34 = icmp ult i64 %31, %33
  br i1 %34, label %35, label %46

35:                                               ; preds = %30
  %36 = load ptr, ptr %9, align 8
  %37 = load i64, ptr %13, align 8
  %38 = getelementptr inbounds %struct.parms_atomic, ptr %7, i32 0, i32 0
  %39 = load i32, ptr %38, align 4
  %40 = zext i32 %39 to i64
  %41 = mul i64 %37, %40
  %42 = load ptr, ptr %11, align 8
  call void @H5Z__scaleoffset_compress_one_atomic(ptr noundef %36, i64 noundef %41, ptr noundef %42, ptr noundef %14, ptr noundef %15, ptr noundef byval(%struct.parms_atomic) align 8 %7)
  br label %43

43:                                               ; preds = %35
  %44 = load i64, ptr %13, align 8
  %45 = add i64 %44, 1
  store i64 %45, ptr %13, align 8
  br label %30

46:                                               ; preds = %30
  ret void
}