; Function Attrs: nofree norecurse nosync nounwind memory(argmem: readwrite) uwtable
define internal fastcc void @H5Z__scaleoffset_compress(ptr nocapture noundef readonly %0, i32 noundef %1, ptr nocapture noundef %2, i64 noundef %3, i64 %4, i32 %5) unnamed_addr #5 {
  %.not = icmp eq i64 %3, 0
  br i1 %.not, label %.preheader, label %.lr.ph.preheader

.lr.ph.preheader:                                 ; preds = %6
  tail call void @llvm.memset.p0.i64(ptr align 1 %2, i8 0, i64 %3, i1 false)
  br label %.preheader

.preheader:                                       ; preds = %.lr.ph.preheader, %6
  %7 = zext i32 %1 to i64
  %.not41 = icmp eq i32 %1, 0
  br i1 %.not41, label %._crit_edge, label %.lr.ph34

.lr.ph34:                                         ; preds = %.preheader
  %8 = and i64 %4, 4294967295
  %.sroa.0.0.extract.trunc = trunc i64 %4 to i32
  %9 = shl i32 %.sroa.0.0.extract.trunc, 3
  %10 = icmp eq i32 %5, 0
  %.sroa.0.4.extract.shift = lshr i64 %4, 32
  %.sroa.0.4.extract.trunc = trunc nuw i64 %.sroa.0.4.extract.shift to i32
  %11 = sub i32 %9, %.sroa.0.4.extract.trunc
  %12 = lshr i32 %11, 3
  %13 = and i32 %11, 7
  %14 = sub nuw nsw i32 8, %13
  %15 = zext nneg i32 %12 to i64
  %16 = xor i32 %12, -1
  %17 = add i32 %16, %.sroa.0.0.extract.trunc
  %18 = zext nneg i32 %17 to i64
  br i1 %10, label %.lr.ph34.split.us, label %.lr.ph34.split

.lr.ph34.split.us:                                ; preds = %.lr.ph34
  %19 = icmp sgt i32 %17, -1
  br i1 %19, label %.lr.ph34.i.us.us, label %._crit_edge

.lr.ph34.i.us.us:                                 ; preds = %.lr.ph34.split.us, %H5Z__scaleoffset_compress_one_atomic.exit.loopexit.us.us
  %.033.us.us = phi i64 [ %53, %H5Z__scaleoffset_compress_one_atomic.exit.loopexit.us.us ], [ 0, %.lr.ph34.split.us ]
  %.02032.us.us = phi i32 [ %.3.us.us, %H5Z__scaleoffset_compress_one_atomic.exit.loopexit.us.us ], [ 8, %.lr.ph34.split.us ]
  %.02131.us.us = phi i64 [ %.324.us.us, %H5Z__scaleoffset_compress_one_atomic.exit.loopexit.us.us ], [ 0, %.lr.ph34.split.us ]
  %20 = mul nuw i64 %.033.us.us, %8
  %invariant.gep31.i.us.us = getelementptr i8, ptr %0, i64 %20
  br label %21

21:                                               ; preds = %H5Z__scaleoffset_compress_one_byte.exit.i.us.us, %.lr.ph34.i.us.us
  %.122.us.us = phi i64 [ %.02131.us.us, %.lr.ph34.i.us.us ], [ %.324.us.us, %H5Z__scaleoffset_compress_one_byte.exit.i.us.us ]
  %.1.us.us = phi i32 [ %.02032.us.us, %.lr.ph34.i.us.us ], [ %.3.us.us, %H5Z__scaleoffset_compress_one_byte.exit.i.us.us ]
  %indvars.iv36.i.us.us = phi i64 [ %18, %.lr.ph34.i.us.us ], [ %indvars.iv.next37.i.us.us, %H5Z__scaleoffset_compress_one_byte.exit.i.us.us ]
  %gep32.i.us.us = getelementptr i8, ptr %invariant.gep31.i.us.us, i64 %indvars.iv36.i.us.us
  %22 = load i8, ptr %gep32.i.us.us, align 1
  %23 = icmp eq i64 %indvars.iv36.i.us.us, %18
  %.0.i.i.us.us = select i1 %23, i32 %14, i32 8
  %24 = icmp ugt i32 %.1.us.us, %.0.i.i.us.us
  %25 = zext i8 %22 to i32
  %26 = getelementptr inbounds i8, ptr %2, i64 %.122.us.us
  %27 = load i8, ptr %26, align 1
  br i1 %24, label %43, label %28

28:                                               ; preds = %21
  %29 = sub i32 %.0.i.i.us.us, %.1.us.us
  %30 = lshr i32 %25, %29
  %31 = shl nsw i32 -1, %.1.us.us
  %32 = xor i32 %31, -1
  %33 = and i32 %30, %32
  %34 = trunc nuw i32 %33 to i8
  %35 = or i8 %27, %34
  store i8 %35, ptr %26, align 1
  %36 = add i64 %.122.us.us, 1
  %37 = icmp eq i32 %.0.i.i.us.us, %.1.us.us
  br i1 %37, label %H5Z__scaleoffset_compress_one_byte.exit.i.us.us, label %38

38:                                               ; preds = %28
  %39 = sub i32 8, %29
  %40 = shl i32 %25, %39
  %41 = trunc i32 %40 to i8
  %42 = getelementptr inbounds i8, ptr %2, i64 %36
  store i8 %41, ptr %42, align 1
  br label %H5Z__scaleoffset_compress_one_byte.exit.i.us.us

43:                                               ; preds = %21
  %44 = shl nsw i32 -1, %.0.i.i.us.us
  %45 = xor i32 %44, -1
  %46 = and i32 %45, %25
  %47 = sub i32 %.1.us.us, %.0.i.i.us.us
  %48 = shl i32 %46, %47
  %49 = trunc i32 %48 to i8
  %50 = or i8 %27, %49
  store i8 %50, ptr %26, align 1
  br label %H5Z__scaleoffset_compress_one_byte.exit.i.us.us

H5Z__scaleoffset_compress_one_byte.exit.i.us.us:  ; preds = %38, %43, %28
  %.324.us.us = phi i64 [ %36, %28 ], [ %.122.us.us, %43 ], [ %36, %38 ]
  %.3.us.us = phi i32 [ 8, %28 ], [ %47, %43 ], [ %39, %38 ]
  %indvars.iv.next37.i.us.us = add nsw i64 %indvars.iv36.i.us.us, -1
  %51 = trunc nuw i64 %indvars.iv36.i.us.us to i32
  %52 = icmp sgt i32 %51, 0
  br i1 %52, label %21, label %H5Z__scaleoffset_compress_one_atomic.exit.loopexit.us.us

H5Z__scaleoffset_compress_one_atomic.exit.loopexit.us.us: ; preds = %H5Z__scaleoffset_compress_one_byte.exit.i.us.us
  %53 = add nuw nsw i64 %.033.us.us, 1
  %exitcond45.not = icmp eq i64 %53, %7
  br i1 %exitcond45.not, label %._crit_edge, label %.lr.ph34.i.us.us

.lr.ph34.split:                                   ; preds = %.lr.ph34
  %54 = add i32 %.sroa.0.0.extract.trunc, -1
  %.not29.i = icmp sgt i32 %12, %54
  br i1 %.not29.i, label %._crit_edge, label %.lr.ph.i

.lr.ph.i:                                         ; preds = %.lr.ph34.split, %H5Z__scaleoffset_compress_one_atomic.exit.loopexit29
  %.033 = phi i64 [ %86, %H5Z__scaleoffset_compress_one_atomic.exit.loopexit29 ], [ 0, %.lr.ph34.split ]
  %.02032 = phi i32 [ %.6, %H5Z__scaleoffset_compress_one_atomic.exit.loopexit29 ], [ 8, %.lr.ph34.split ]
  %.02131 = phi i64 [ %.627, %H5Z__scaleoffset_compress_one_atomic.exit.loopexit29 ], [ 0, %.lr.ph34.split ]
  %55 = mul nuw i64 %.033, %8
  %invariant.gep.i = getelementptr i8, ptr %0, i64 %55
  br label %56

56:                                               ; preds = %H5Z__scaleoffset_compress_one_byte.exit27.i, %.lr.ph.i
  %.425 = phi i64 [ %.02131, %.lr.ph.i ], [ %.627, %H5Z__scaleoffset_compress_one_byte.exit27.i ]
  %.4 = phi i32 [ %.02032, %.lr.ph.i ], [ %.6, %H5Z__scaleoffset_compress_one_byte.exit27.i ]
  %indvars.iv.i = phi i64 [ %15, %.lr.ph.i ], [ %indvars.iv.next.i, %H5Z__scaleoffset_compress_one_byte.exit27.i ]
  %gep.i = getelementptr i8, ptr %invariant.gep.i, i64 %indvars.iv.i
  %57 = load i8, ptr %gep.i, align 1
  %58 = icmp eq i64 %indvars.iv.i, %15
  %.0.i24.i = select i1 %58, i32 %14, i32 8
  %59 = icmp ugt i32 %.4, %.0.i24.i
  %60 = zext i8 %57 to i32
  %61 = getelementptr inbounds i8, ptr %2, i64 %.425
  %62 = load i8, ptr %61, align 1
  br i1 %59, label %63, label %71

63:                                               ; preds = %56
  %64 = shl nsw i32 -1, %.0.i24.i
  %65 = xor i32 %64, -1
  %66 = and i32 %65, %60
  %67 = sub i32 %.4, %.0.i24.i
  %68 = shl i32 %66, %67
  %69 = trunc i32 %68 to i8
  %70 = or i8 %62, %69
  store i8 %70, ptr %61, align 1
  br label %H5Z__scaleoffset_compress_one_byte.exit27.i

71:                                               ; preds = %56
  %72 = sub i32 %.0.i24.i, %.4
  %73 = lshr i32 %60, %72
  %74 = shl nsw i32 -1, %.4
  %75 = xor i32 %74, -1
  %76 = and i32 %73, %75
  %77 = trunc nuw i32 %76 to i8
  %78 = or i8 %62, %77
  store i8 %78, ptr %61, align 1
  %79 = add i64 %.425, 1
  %80 = icmp eq i32 %.0.i24.i, %.4
  br i1 %80, label %H5Z__scaleoffset_compress_one_byte.exit27.i, label %81

81:                                               ; preds = %71
  %82 = sub i32 8, %72
  %83 = shl i32 %60, %82
  %84 = trunc i32 %83 to i8
  %85 = getelementptr inbounds i8, ptr %2, i64 %79
  store i8 %84, ptr %85, align 1
  br label %H5Z__scaleoffset_compress_one_byte.exit27.i

H5Z__scaleoffset_compress_one_byte.exit27.i:      ; preds = %63, %81, %71
  %.627 = phi i64 [ %79, %71 ], [ %79, %81 ], [ %.425, %63 ]
  %.6 = phi i32 [ 8, %71 ], [ %82, %81 ], [ %67, %63 ]
  %indvars.iv.next.i = add nuw nsw i64 %indvars.iv.i, 1
  %exitcond.not.i = icmp eq i64 %indvars.iv.next.i, %8
  br i1 %exitcond.not.i, label %H5Z__scaleoffset_compress_one_atomic.exit.loopexit29, label %56

H5Z__scaleoffset_compress_one_atomic.exit.loopexit29: ; preds = %H5Z__scaleoffset_compress_one_byte.exit27.i
  %86 = add nuw nsw i64 %.033, 1
  %exitcond.not = icmp eq i64 %86, %7
  br i1 %exitcond.not, label %._crit_edge, label %.lr.ph.i

._crit_edge:                                      ; preds = %H5Z__scaleoffset_compress_one_atomic.exit.loopexit29, %H5Z__scaleoffset_compress_one_atomic.exit.loopexit.us.us, %.lr.ph34.split, %.lr.ph34.split.us, %.preheader
  ret void
}